target datalayout = "e-m:e-p270:32:32-p271:32:32-p272:64:64-i64:64-i128:128-f80:128-n8:16:32:64-S128"
target triple = "x86_64-pc-linux-gnu"

%"struct.folly::NetworkSocket" = type { i32 }
%"class.folly::detail::ScopeGuardImpl" = type { %"class.folly::detail::ScopeGuardImplBase", %class.anon }
%"class.folly::detail::ScopeGuardImplBase" = type { i8 }
%class.anon = type { ptr }

; Function Attrs: noinline noreturn nounwind uwtable
define linkonce_odr hidden void @__clang_call_terminate(ptr noundef %0) #7 comdat {
  %2 = call ptr @__cxa_begin_catch(ptr %0) #25
  call void @_ZSt9terminatev() #31
  unreachable
}

; Function Attrs: alwaysinline mustprogress nounwind uwtable
define linkonce_odr hidden void @_ZN5folly11invoke_coldIPDoFvvEJES1_TnNSt9enable_ifIXsr3std11is_functionIT1_EE5valueEiE4typeELi0EvEET3_OT_DpOT0_(ptr noundef nonnull align 8 dereferenceable(8) %0) #8 comdat {
  %2 = alloca ptr, align 8
  store ptr %0, ptr %2, align 8, !tbaa !198
  %3 = load ptr, ptr %2, align 8, !tbaa !198
  %4 = load ptr, ptr %3, align 8, !tbaa !198
  call void %4() #25
  ret void
}

; Function Attrs: inlinehint mustprogress uwtable
define internal void @"_ZZN5folly14AsyncUDPSocket4initEtNS0_11BindOptionsEENK3$_0clEv"(ptr noundef nonnull align 8 dereferenceable(8) %0) #18 align 2 {
  %2 = alloca ptr, align 8
  %3 = alloca %"struct.folly::NetworkSocket", align 4
  store ptr %0, ptr %2, align 8, !tbaa !198
  %4 = load ptr, ptr %2, align 8
  %5 = getelementptr inbounds nuw %class.anon, ptr %4, i32 0, i32 0
  %6 = load ptr, ptr %5, align 8, !tbaa !399
  call void @llvm.memcpy.p0.p0.i64(ptr align 4 %3, ptr align 4 %6, i64 4, i1 false), !tbaa.struct !77
  %7 = getelementptr inbounds nuw %"struct.folly::NetworkSocket", ptr %3, i32 0, i32 0
  %8 = load i32, ptr %7, align 4
  %9 = call noundef i32 @_ZN5folly6netops5closeENS_13NetworkSocketE(i32 %8)
  ret void
}

; Function Attrs: alwaysinline mustprogress nounwind uwtable
define internal void @"_ZN5folly15catch_exceptionIRZNS_14AsyncUDPSocket4initEtNS1_11BindOptionsEE3$_0PDoFvvEJEvEET2_OT_OT0_DpOT1_"(ptr noundef nonnull align 8 dereferenceable(8) %0, ptr noundef nonnull align 8 dereferenceable(8) %1) #8 personality ptr @__gxx_personality_v0 {
  %3 = alloca ptr, align 8
  %4 = alloca ptr, align 8
  %5 = alloca ptr, align 8
  %6 = alloca i32, align 4
  store ptr %0, ptr %3, align 8, !tbaa !198
  store ptr %1, ptr %4, align 8, !tbaa !198
  %7 = load ptr, ptr %3, align 8, !tbaa !198
  invoke void @"_ZZN5folly14AsyncUDPSocket4initEtNS0_11BindOptionsEENK3$_0clEv"(ptr noundef nonnull align 8 dereferenceable(8) %7)
          to label %8 unwind label %9

8:                                                ; preds = %2
  br label %18

9:                                                ; preds = %2
  %10 = landingpad { ptr, i32 }
          catch ptr null
  %11 = extractvalue { ptr, i32 } %10, 0
  store ptr %11, ptr %5, align 8
  %12 = extractvalue { ptr, i32 } %10, 1
  store i32 %12, ptr %6, align 4
  br label %13

13:                                               ; preds = %9
  %14 = load ptr, ptr %5, align 8
  %15 = call ptr @__cxa_begin_catch(ptr %14) #25
  %16 = load ptr, ptr %4, align 8, !tbaa !198
  call void @_ZN5folly11invoke_coldIPDoFvvEJES1_TnNSt9enable_ifIXsr3std11is_functionIT1_EE5valueEiE4typeELi0EvEET3_OT_DpOT0_(ptr noundef nonnull align 8 dereferenceable(8) %16) #25
  invoke void @__cxa_end_catch()
          to label %17 unwind label %19

17:                                               ; preds = %13
  br label %18

18:                                               ; preds = %8, %17
  ret void

19:                                               ; preds = %13
  %20 = landingpad { ptr, i32 }
          catch ptr null
  %21 = extractvalue { ptr, i32 } %20, 0
  call void @__clang_call_terminate(ptr %21) #31
  unreachable
}

; Function Attrs: mustprogress nounwind uwtable
define internal void @"_ZN5folly6detail14ScopeGuardImplIZNS_14AsyncUDPSocket4initEtNS2_11BindOptionsEE3$_0Lb1EE7executeEv"(ptr noundef nonnull align 8 dereferenceable(16) %0) #0 align 2 {
  %2 = alloca ptr, align 8
  %3 = alloca ptr, align 8
  store ptr %0, ptr %2, align 8, !tbaa !387
  %4 = load ptr, ptr %2, align 8
  %5 = getelementptr inbounds nuw %"class.folly::detail::ScopeGuardImpl", ptr %4, i32 0, i32 1
  call void @llvm.lifetime.start.p0(i64 8, ptr %3) #25
  store ptr @_ZN5folly6detail18ScopeGuardImplBase9terminateEv, ptr %3, align 8, !tbaa !198
  call void @"_ZN5folly15catch_exceptionIRZNS_14AsyncUDPSocket4initEtNS1_11BindOptionsEE3$_0PDoFvvEJEvEET2_OT_OT0_DpOT1_"(ptr noundef nonnull align 8 dereferenceable(8) %5, ptr noundef nonnull align 8 dereferenceable(8) %3) #25
  call void @llvm.lifetime.end.p0(i64 8, ptr %3) #25
  ret void
}

; Function Attrs: mustprogress nounwind uwtable
define internal void @"_ZN5folly6detail14ScopeGuardImplIZNS_14AsyncUDPSocket4initEtNS2_11BindOptionsEE3$_0Lb1EED2Ev"(ptr noundef nonnull align 8 dereferenceable(16) %0) unnamed_addr #0 align 2 {
  %2 = alloca ptr, align 8
  store ptr %0, ptr %2, align 8, !tbaa !387
  %3 = load ptr, ptr %2, align 8
  %4 = getelementptr inbounds nuw %"class.folly::detail::ScopeGuardImplBase", ptr %3, i32 0, i32 0
  %5 = load i8, ptr %4, align 8, !tbaa !385, !range !114, !noundef !115
  %6 = trunc i8 %5 to i1
  br i1 %6, label %8, label %7

7:                                                ; preds = %1
  call void @"_ZN5folly6detail14ScopeGuardImplIZNS_14AsyncUDPSocket4initEtNS2_11BindOptionsEE3$_0Lb1EE7executeEv"(ptr noundef nonnull align 8 dereferenceable(16) %3) #25
  br label %8

8:                                                ; preds = %7, %1
  ret void
}