; Function Attrs: mustprogress nounwind uwtable
define internal fastcc void @"_ZN5folly6detail14ScopeGuardImplIZNS_14AsyncUDPSocket4initEtNS2_11BindOptionsEE3$_0Lb1EED2Ev"(i8 %.0.val, ptr readonly captures(none) %.8.val) unnamed_addr #0 align 2 personality ptr @__gxx_personality_v0 {
  %1 = trunc nuw i8 %.0.val to i1
  br i1 %1, label %"_ZN5folly6detail14ScopeGuardImplIZNS_14AsyncUDPSocket4initEtNS2_11BindOptionsEE3$_0Lb1EE7executeEv.exit", label %2

2:                                                ; preds = %0
  %.val.val = load i32, ptr %.8.val, align 4, !tbaa !34
  %3 = invoke noundef i32 @_ZN5folly6netops5closeENS_13NetworkSocketE(i32 %.val.val)
          to label %"_ZN5folly6detail14ScopeGuardImplIZNS_14AsyncUDPSocket4initEtNS2_11BindOptionsEE3$_0Lb1EE7executeEv.exit" unwind label %4

4:                                                ; preds = %2
  %5 = landingpad { ptr, i32 }
          catch ptr null
  %6 = extractvalue { ptr, i32 } %5, 0
  %7 = tail call ptr @__cxa_begin_catch(ptr %6) #36
  tail call void @_ZN5folly6detail18ScopeGuardImplBase9terminateEv() #36
  unreachable

"_ZN5folly6detail14ScopeGuardImplIZNS_14AsyncUDPSocket4initEtNS2_11BindOptionsEE3$_0Lb1EE7executeEv.exit": ; preds = %2, %0
  ret void
}